; Function Attrs: nounwind sspstrong uwtable
define dso_local noundef ptr @qtest_boot(ptr noundef %0, ptr noundef %1, ...) local_unnamed_addr #0 {
  %3 = alloca [1 x %struct.__va_list_tag], align 16
  call void @llvm.lifetime.start.p0(i64 24, ptr nonnull %3) #13
  call void @llvm.memset.p0.i64(ptr noundef nonnull align 16 dereferenceable(24) %3, i8 0, i64 24, i1 false), !annotation !4
  call void @llvm.va_start.p0(ptr nonnull %3)
  %4 = call noalias dereferenceable_or_null(72) ptr @g_malloc0(i64 noundef 72) #12
  %5 = call noalias ptr @g_strdup_vprintf(ptr noundef %1, ptr noundef nonnull %3) #13
  %6 = call ptr @qtest_init(ptr noundef %5) #13
  store ptr %6, ptr %4, align 8
  %7 = getelementptr inbounds nuw i8, ptr %4, i64 64
  store ptr %0, ptr %7, align 8
  %.not.i = icmp eq ptr %0, null
  br i1 %.not.i, label %qtest_vboot.exit, label %8

8:                                                ; preds = %2
  %9 = load ptr, ptr %0, align 8
  %10 = getelementptr inbounds nuw i8, ptr %4, i64 8
  call void %9(ptr noundef nonnull %10, ptr noundef %6, i32 noundef 0) #13
  %11 = getelementptr inbounds nuw i8, ptr %0, i64 8
  %12 = load ptr, ptr %11, align 8
  %13 = load ptr, ptr %4, align 8
  %14 = call ptr %12(ptr noundef %13, ptr noundef nonnull %10) #13
  %15 = getelementptr inbounds nuw i8, ptr %4, i64 56
  store ptr %14, ptr %15, align 8
  br label %qtest_vboot.exit

qtest_vboot.exit:                                 ; preds = %2, %8
  call void @g_free(ptr noundef %5) #13
  call void @llvm.va_end.p0(ptr nonnull %3)
  call void @llvm.lifetime.end.p0(i64 24, ptr nonnull %3) #13
  ret ptr %4
}